; Function Attrs: mustprogress nofree norecurse nosync nounwind willreturn memory(read, inaccessiblemem: none) uwtable
define noundef nonnull align 8 dereferenceable(84) ptr @_ZNK6icu_7522CompoundTransliterator17getTransliteratorEi(ptr nocapture noundef nonnull readonly align 8 dereferenceable(104) %this, i32 noundef %index) unnamed_addr #8 align 2 {
entry:
  %trans = getelementptr inbounds i8, ptr %this, i64 88
  %0 = load ptr, ptr %trans, align 8
  %idxprom = sext i32 %index to i64
  %arrayidx = getelementptr inbounds ptr, ptr %0, i64 %idxprom
  %1 = load ptr, ptr %arrayidx, align 8
  ret ptr %1
}